target datalayout = "e-m:e-p270:32:32-p271:32:32-p272:64:64-i64:64-i128:128-f80:128-n8:16:32:64-S128"
target triple = "x86_64-pc-linux-gnu"

; Function Attrs: nounwind uwtable
define internal void @unpremultiply16offset(ptr noundef %0, ptr noundef %1, ptr noundef %2, i64 noundef %3, i64 noundef %4, i64 noundef %5, i32 noundef %6, i32 noundef %7, i32 noundef %8, i32 noundef %9, i32 noundef %10) #1 {
  %12 = alloca ptr, align 8
  %13 = alloca ptr, align 8
  %14 = alloca ptr, align 8
  %15 = alloca i64, align 8
  %16 = alloca i64, align 8
  %17 = alloca i64, align 8
  %18 = alloca i32, align 4
  %19 = alloca i32, align 4
  %20 = alloca i32, align 4
  %21 = alloca i32, align 4
  %22 = alloca i32, align 4
  %23 = alloca ptr, align 8
  %24 = alloca ptr, align 8
  %25 = alloca ptr, align 8
  %26 = alloca i32, align 4
  %27 = alloca i32, align 4
  store ptr %0, ptr %12, align 8, !tbaa !91
  store ptr %1, ptr %13, align 8, !tbaa !91
  store ptr %2, ptr %14, align 8, !tbaa !91
  store i64 %3, ptr %15, align 8, !tbaa !50
  store i64 %4, ptr %16, align 8, !tbaa !50
  store i64 %5, ptr %17, align 8, !tbaa !50
  store i32 %6, ptr %18, align 4, !tbaa !37
  store i32 %7, ptr %19, align 4, !tbaa !37
  store i32 %8, ptr %20, align 4, !tbaa !37
  store i32 %9, ptr %21, align 4, !tbaa !37
  store i32 %10, ptr %22, align 4, !tbaa !37
  call void @llvm.lifetime.start.p0(i64 8, ptr %23) #11
  %28 = load ptr, ptr %12, align 8, !tbaa !91
  store ptr %28, ptr %23, align 8, !tbaa !99
  call void @llvm.lifetime.start.p0(i64 8, ptr %24) #11
  %29 = load ptr, ptr %13, align 8, !tbaa !91
  store ptr %29, ptr %24, align 8, !tbaa !99
  call void @llvm.lifetime.start.p0(i64 8, ptr %25) #11
  %30 = load ptr, ptr %14, align 8, !tbaa !91
  store ptr %30, ptr %25, align 8, !tbaa !99
  call void @llvm.lifetime.start.p0(i64 4, ptr %26) #11
  call void @llvm.lifetime.start.p0(i64 4, ptr %27) #11
  store i32 0, ptr %27, align 4, !tbaa !37
  br label %31

31:                                               ; preds = %237, %11
  %32 = load i32, ptr %27, align 4, !tbaa !37
  %33 = load i32, ptr %19, align 4, !tbaa !37
  %34 = icmp slt i32 %32, %33
  br i1 %34, label %35, label %240

35:                                               ; preds = %31
  store i32 0, ptr %26, align 4, !tbaa !37
  br label %36

36:                                               ; preds = %221, %35
  %37 = load i32, ptr %26, align 4, !tbaa !37
  %38 = load i32, ptr %18, align 4, !tbaa !37
  %39 = icmp slt i32 %37, %38
  br i1 %39, label %40, label %224

40:                                               ; preds = %36
  %41 = load ptr, ptr %24, align 8, !tbaa !99
  %42 = load i32, ptr %26, align 4, !tbaa !37
  %43 = sext i32 %42 to i64
  %44 = getelementptr inbounds i16, ptr %41, i64 %43
  %45 = load i16, ptr %44, align 2, !tbaa !101
  %46 = zext i16 %45 to i32
  %47 = icmp sgt i32 %46, 0
  br i1 %47, label %48, label %210

48:                                               ; preds = %40
  %49 = load ptr, ptr %24, align 8, !tbaa !99
  %50 = load i32, ptr %26, align 4, !tbaa !37
  %51 = sext i32 %50 to i64
  %52 = getelementptr inbounds i16, ptr %49, i64 %51
  %53 = load i16, ptr %52, align 2, !tbaa !101
  %54 = zext i16 %53 to i32
  %55 = load i32, ptr %21, align 4, !tbaa !37
  %56 = icmp slt i32 %54, %55
  br i1 %56, label %57, label %210

57:                                               ; preds = %48
  %58 = load ptr, ptr %23, align 8, !tbaa !99
  %59 = load i32, ptr %26, align 4, !tbaa !37
  %60 = sext i32 %59 to i64
  %61 = getelementptr inbounds i16, ptr %58, i64 %60
  %62 = load i16, ptr %61, align 2, !tbaa !101
  %63 = zext i16 %62 to i32
  %64 = load i32, ptr %22, align 4, !tbaa !37
  %65 = sub nsw i32 %63, %64
  %66 = icmp sgt i32 %65, 0
  br i1 %66, label %67, label %76

67:                                               ; preds = %57
  %68 = load ptr, ptr %23, align 8, !tbaa !99
  %69 = load i32, ptr %26, align 4, !tbaa !37
  %70 = sext i32 %69 to i64
  %71 = getelementptr inbounds i16, ptr %68, i64 %70
  %72 = load i16, ptr %71, align 2, !tbaa !101
  %73 = zext i16 %72 to i32
  %74 = load i32, ptr %22, align 4, !tbaa !37
  %75 = sub nsw i32 %73, %74
  br label %77

76:                                               ; preds = %57
  br label %77

77:                                               ; preds = %76, %67
  %78 = phi i32 [ %75, %67 ], [ 0, %76 ]
  %79 = load i32, ptr %21, align 4, !tbaa !37
  %80 = mul i32 %78, %79
  %81 = load ptr, ptr %24, align 8, !tbaa !99
  %82 = load i32, ptr %26, align 4, !tbaa !37
  %83 = sext i32 %82 to i64
  %84 = getelementptr inbounds i16, ptr %81, i64 %83
  %85 = load i16, ptr %84, align 2, !tbaa !101
  %86 = zext i16 %85 to i32
  %87 = udiv i32 %80, %86
  %88 = load i32, ptr %22, align 4, !tbaa !37
  %89 = add i32 %87, %88
  %90 = load i32, ptr %21, align 4, !tbaa !37
  %91 = icmp ugt i32 %89, %90
  br i1 %91, label %92, label %94

92:                                               ; preds = %77
  %93 = load i32, ptr %21, align 4, !tbaa !37
  br label %127

94:                                               ; preds = %77
  %95 = load ptr, ptr %23, align 8, !tbaa !99
  %96 = load i32, ptr %26, align 4, !tbaa !37
  %97 = sext i32 %96 to i64
  %98 = getelementptr inbounds i16, ptr %95, i64 %97
  %99 = load i16, ptr %98, align 2, !tbaa !101
  %100 = zext i16 %99 to i32
  %101 = load i32, ptr %22, align 4, !tbaa !37
  %102 = sub nsw i32 %100, %101
  %103 = icmp sgt i32 %102, 0
  br i1 %103, label %104, label %113

104:                                              ; preds = %94
  %105 = load ptr, ptr %23, align 8, !tbaa !99
  %106 = load i32, ptr %26, align 4, !tbaa !37
  %107 = sext i32 %106 to i64
  %108 = getelementptr inbounds i16, ptr %105, i64 %107
  %109 = load i16, ptr %108, align 2, !tbaa !101
  %110 = zext i16 %109 to i32
  %111 = load i32, ptr %22, align 4, !tbaa !37
  %112 = sub nsw i32 %110, %111
  br label %114

113:                                              ; preds = %94
  br label %114

114:                                              ; preds = %113, %104
  %115 = phi i32 [ %112, %104 ], [ 0, %113 ]
  %116 = load i32, ptr %21, align 4, !tbaa !37
  %117 = mul i32 %115, %116
  %118 = load ptr, ptr %24, align 8, !tbaa !99
  %119 = load i32, ptr %26, align 4, !tbaa !37
  %120 = sext i32 %119 to i64
  %121 = getelementptr inbounds i16, ptr %118, i64 %120
  %122 = load i16, ptr %121, align 2, !tbaa !101
  %123 = zext i16 %122 to i32
  %124 = udiv i32 %117, %123
  %125 = load i32, ptr %22, align 4, !tbaa !37
  %126 = add i32 %124, %125
  br label %127

127:                                              ; preds = %114, %92
  %128 = phi i32 [ %93, %92 ], [ %126, %114 ]
  %129 = icmp ugt i32 %128, 0
  br i1 %129, label %130, label %202

130:                                              ; preds = %127
  %131 = load ptr, ptr %23, align 8, !tbaa !99
  %132 = load i32, ptr %26, align 4, !tbaa !37
  %133 = sext i32 %132 to i64
  %134 = getelementptr inbounds i16, ptr %131, i64 %133
  %135 = load i16, ptr %134, align 2, !tbaa !101
  %136 = zext i16 %135 to i32
  %137 = load i32, ptr %22, align 4, !tbaa !37
  %138 = sub nsw i32 %136, %137
  %139 = icmp sgt i32 %138, 0
  br i1 %139, label %140, label %149

140:                                              ; preds = %130
  %141 = load ptr, ptr %23, align 8, !tbaa !99
  %142 = load i32, ptr %26, align 4, !tbaa !37
  %143 = sext i32 %142 to i64
  %144 = getelementptr inbounds i16, ptr %141, i64 %143
  %145 = load i16, ptr %144, align 2, !tbaa !101
  %146 = zext i16 %145 to i32
  %147 = load i32, ptr %22, align 4, !tbaa !37
  %148 = sub nsw i32 %146, %147
  br label %150

149:                                              ; preds = %130
  br label %150

150:                                              ; preds = %149, %140
  %151 = phi i32 [ %148, %140 ], [ 0, %149 ]
  %152 = load i32, ptr %21, align 4, !tbaa !37
  %153 = mul i32 %151, %152
  %154 = load ptr, ptr %24, align 8, !tbaa !99
  %155 = load i32, ptr %26, align 4, !tbaa !37
  %156 = sext i32 %155 to i64
  %157 = getelementptr inbounds i16, ptr %154, i64 %156
  %158 = load i16, ptr %157, align 2, !tbaa !101
  %159 = zext i16 %158 to i32
  %160 = udiv i32 %153, %159
  %161 = load i32, ptr %22, align 4, !tbaa !37
  %162 = add i32 %160, %161
  %163 = load i32, ptr %21, align 4, !tbaa !37
  %164 = icmp ugt i32 %162, %163
  br i1 %164, label %165, label %167

165:                                              ; preds = %150
  %166 = load i32, ptr %21, align 4, !tbaa !37
  br label %200

167:                                              ; preds = %150
  %168 = load ptr, ptr %23, align 8, !tbaa !99
  %169 = load i32, ptr %26, align 4, !tbaa !37
  %170 = sext i32 %169 to i64
  %171 = getelementptr inbounds i16, ptr %168, i64 %170
  %172 = load i16, ptr %171, align 2, !tbaa !101
  %173 = zext i16 %172 to i32
  %174 = load i32, ptr %22, align 4, !tbaa !37
  %175 = sub nsw i32 %173, %174
  %176 = icmp sgt i32 %175, 0
  br i1 %176, label %177, label %186

177:                                              ; preds = %167
  %178 = load ptr, ptr %23, align 8, !tbaa !99
  %179 = load i32, ptr %26, align 4, !tbaa !37
  %180 = sext i32 %179 to i64
  %181 = getelementptr inbounds i16, ptr %178, i64 %180
  %182 = load i16, ptr %181, align 2, !tbaa !101
  %183 = zext i16 %182 to i32
  %184 = load i32, ptr %22, align 4, !tbaa !37
  %185 = sub nsw i32 %183, %184
  br label %187

186:                                              ; preds = %167
  br label %187

187:                                              ; preds = %186, %177
  %188 = phi i32 [ %185, %177 ], [ 0, %186 ]
  %189 = load i32, ptr %21, align 4, !tbaa !37
  %190 = mul i32 %188, %189
  %191 = load ptr, ptr %24, align 8, !tbaa !99
  %192 = load i32, ptr %26, align 4, !tbaa !37
  %193 = sext i32 %192 to i64
  %194 = getelementptr inbounds i16, ptr %191, i64 %193
  %195 = load i16, ptr %194, align 2, !tbaa !101
  %196 = zext i16 %195 to i32
  %197 = udiv i32 %190, %196
  %198 = load i32, ptr %22, align 4, !tbaa !37
  %199 = add i32 %197, %198
  br label %200

200:                                              ; preds = %187, %165
  %201 = phi i32 [ %166, %165 ], [ %199, %187 ]
  br label %203

202:                                              ; preds = %127
  br label %203

203:                                              ; preds = %202, %200
  %204 = phi i32 [ %201, %200 ], [ 0, %202 ]
  %205 = trunc i32 %204 to i16
  %206 = load ptr, ptr %25, align 8, !tbaa !99
  %207 = load i32, ptr %26, align 4, !tbaa !37
  %208 = sext i32 %207 to i64
  %209 = getelementptr inbounds i16, ptr %206, i64 %208
  store i16 %205, ptr %209, align 2, !tbaa !101
  br label %220

210:                                              ; preds = %48, %40
  %211 = load ptr, ptr %23, align 8, !tbaa !99
  %212 = load i32, ptr %26, align 4, !tbaa !37
  %213 = sext i32 %212 to i64
  %214 = getelementptr inbounds i16, ptr %211, i64 %213
  %215 = load i16, ptr %214, align 2, !tbaa !101
  %216 = load ptr, ptr %25, align 8, !tbaa !99
  %217 = load i32, ptr %26, align 4, !tbaa !37
  %218 = sext i32 %217 to i64
  %219 = getelementptr inbounds i16, ptr %216, i64 %218
  store i16 %215, ptr %219, align 2, !tbaa !101
  br label %220

220:                                              ; preds = %210, %203
  br label %221

221:                                              ; preds = %220
  %222 = load i32, ptr %26, align 4, !tbaa !37
  %223 = add nsw i32 %222, 1
  store i32 %223, ptr %26, align 4, !tbaa !37
  br label %36, !llvm.loop !105

224:                                              ; preds = %36
  %225 = load i64, ptr %17, align 8, !tbaa !50
  %226 = sdiv i64 %225, 2
  %227 = load ptr, ptr %25, align 8, !tbaa !99
  %228 = getelementptr inbounds i16, ptr %227, i64 %226
  store ptr %228, ptr %25, align 8, !tbaa !99
  %229 = load i64, ptr %15, align 8, !tbaa !50
  %230 = sdiv i64 %229, 2
  %231 = load ptr, ptr %23, align 8, !tbaa !99
  %232 = getelementptr inbounds i16, ptr %231, i64 %230
  store ptr %232, ptr %23, align 8, !tbaa !99
  %233 = load i64, ptr %16, align 8, !tbaa !50
  %234 = sdiv i64 %233, 2
  %235 = load ptr, ptr %24, align 8, !tbaa !99
  %236 = getelementptr inbounds i16, ptr %235, i64 %234
  store ptr %236, ptr %24, align 8, !tbaa !99
  br label %237

237:                                              ; preds = %224
  %238 = load i32, ptr %27, align 4, !tbaa !37
  %239 = add nsw i32 %238, 1
  store i32 %239, ptr %27, align 4, !tbaa !37
  br label %31, !llvm.loop !106

240:                                              ; preds = %31
  call void @llvm.lifetime.end.p0(i64 4, ptr %27) #11
  call void @llvm.lifetime.end.p0(i64 4, ptr %26) #11
  call void @llvm.lifetime.end.p0(i64 8, ptr %25) #11
  call void @llvm.lifetime.end.p0(i64 8, ptr %24) #11
  call void @llvm.lifetime.end.p0(i64 8, ptr %23) #11
  ret void
}