; Function Attrs: nofree norecurse nosync nounwind memory(argmem: readwrite) uwtable
define internal void @unpremultiply16offset(ptr noundef readonly captures(none) %0, ptr noundef readonly captures(none) %1, ptr noundef writeonly captures(none) %2, i64 noundef %3, i64 noundef %4, i64 noundef %5, i32 noundef %6, i32 noundef %7, i32 %8, i32 noundef %9, i32 noundef %10) #5 {
  %12 = icmp sgt i32 %7, 0
  br i1 %12, label %.preheader.lr.ph, label %._crit_edge92

.preheader.lr.ph:                                 ; preds = %11
  %13 = icmp sgt i32 %6, 0
  %14 = sdiv i64 %5, 2
  %15 = sdiv i64 %3, 2
  %16 = sdiv i64 %4, 2
  br i1 %13, label %.preheader.us.preheader, label %._crit_edge92

.preheader.us.preheader:                          ; preds = %.preheader.lr.ph
  %wide.trip.count = zext nneg i32 %6 to i64
  br label %.preheader.us

.preheader.us:                                    ; preds = %.preheader.us.preheader, %._crit_edge.us
  %.091.us = phi i32 [ %36, %._crit_edge.us ], [ 0, %.preheader.us.preheader ]
  %.07090.us = phi ptr [ %33, %._crit_edge.us ], [ %2, %.preheader.us.preheader ]
  %.07189.us = phi ptr [ %35, %._crit_edge.us ], [ %1, %.preheader.us.preheader ]
  %.07288.us = phi ptr [ %34, %._crit_edge.us ], [ %0, %.preheader.us.preheader ]
  br label %17

17:                                               ; preds = %.preheader.us, %31
  %indvars.iv = phi i64 [ 0, %.preheader.us ], [ %indvars.iv.next, %31 ]
  %18 = getelementptr inbounds nuw i16, ptr %.07189.us, i64 %indvars.iv
  %19 = load i16, ptr %18, align 2, !tbaa !85
  %.not.us = icmp ne i16 %19, 0
  %20 = zext i16 %19 to i32
  %21 = icmp sgt i32 %9, %20
  %or.cond.us = and i1 %.not.us, %21
  %22 = getelementptr inbounds nuw i16, ptr %.07288.us, i64 %indvars.iv
  %23 = load i16, ptr %22, align 2, !tbaa !85
  br i1 %or.cond.us, label %.thread85.us, label %31

.thread85.us:                                     ; preds = %17
  %24 = zext i16 %23 to i32
  %25 = sub nsw i32 %24, %10
  %spec.select.us = tail call i32 @llvm.smax.i32(i32 %25, i32 0)
  %26 = mul i32 %spec.select.us, %9
  %27 = udiv i32 %26, %20
  %28 = add i32 %27, %10
  %29 = tail call i32 @llvm.umin.i32(i32 %28, i32 %9)
  %30 = trunc i32 %29 to i16
  br label %31

31:                                               ; preds = %17, %.thread85.us
  %.sink = phi i16 [ %30, %.thread85.us ], [ %23, %17 ]
  %32 = getelementptr inbounds nuw i16, ptr %.07090.us, i64 %indvars.iv
  store i16 %.sink, ptr %32, align 2, !tbaa !85
  %indvars.iv.next = add nuw nsw i64 %indvars.iv, 1
  %exitcond.not = icmp eq i64 %indvars.iv.next, %wide.trip.count
  br i1 %exitcond.not, label %._crit_edge.us, label %17, !llvm.loop !89

._crit_edge.us:                                   ; preds = %31
  %33 = getelementptr inbounds i16, ptr %.07090.us, i64 %14
  %34 = getelementptr inbounds i16, ptr %.07288.us, i64 %15
  %35 = getelementptr inbounds i16, ptr %.07189.us, i64 %16
  %36 = add nuw nsw i32 %.091.us, 1
  %exitcond95.not = icmp eq i32 %36, %7
  br i1 %exitcond95.not, label %._crit_edge92, label %.preheader.us, !llvm.loop !90

._crit_edge92:                                    ; preds = %._crit_edge.us, %.preheader.lr.ph, %11
  ret void
}